; Function Attrs: nounwind uwtable
define void @lv_svg_render_delete(ptr noundef %0) local_unnamed_addr #0 {
  %.not22 = icmp eq ptr %0, null
  br i1 %.not22, label %._crit_edge, label %.lr.ph

.lr.ph:                                           ; preds = %1, %19
  %.023 = phi ptr [ %2, %19 ], [ %0, %1 ]
  %2 = load ptr, ptr %.023, align 8, !tbaa !136
  %3 = getelementptr inbounds nuw i8, ptr %.023, i64 288
  tail call void @lv_array_deinit(ptr noundef nonnull %3) #9
  %4 = getelementptr inbounds nuw i8, ptr %.023, i64 568
  %5 = load ptr, ptr %4, align 8, !tbaa !152
  %.not18 = icmp eq ptr %5, null
  br i1 %.not18, label %7, label %6

6:                                                ; preds = %.lr.ph
  tail call void %5(ptr noundef nonnull %.023) #9
  br label %7

7:                                                ; preds = %6, %.lr.ph
  %8 = getelementptr inbounds nuw i8, ptr %.023, i64 16
  %9 = load ptr, ptr %8, align 8, !tbaa !121
  %.not19 = icmp eq ptr %9, null
  br i1 %.not19, label %11, label %10

10:                                               ; preds = %7
  tail call void @lv_free(ptr noundef nonnull %9) #9
  br label %11

11:                                               ; preds = %10, %7
  %12 = getelementptr inbounds nuw i8, ptr %.023, i64 512
  %13 = load ptr, ptr %12, align 8, !tbaa !124
  %.not20 = icmp eq ptr %13, null
  br i1 %.not20, label %15, label %14

14:                                               ; preds = %11
  tail call void @lv_free(ptr noundef nonnull %13) #9
  br label %15

15:                                               ; preds = %14, %11
  %16 = getelementptr inbounds nuw i8, ptr %.023, i64 520
  %17 = load ptr, ptr %16, align 8, !tbaa !126
  %.not21 = icmp eq ptr %17, null
  br i1 %.not21, label %19, label %18

18:                                               ; preds = %15
  tail call void @lv_free(ptr noundef nonnull %17) #9
  br label %19

19:                                               ; preds = %18, %15
  tail call void @lv_free(ptr noundef nonnull %.023) #9
  %.not = icmp eq ptr %2, null
  br i1 %.not, label %._crit_edge, label %.lr.ph, !llvm.loop !153

._crit_edge:                                      ; preds = %19, %1
  ret void
}